; Function Attrs: nounwind uwtable
define hidden i32 @SDL_hid_set_nonblocking_REAL(ptr noundef %0, i32 noundef %1) local_unnamed_addr #1 {
  %3 = tail call zeroext i1 @SDL_ObjectValid(ptr noundef %0, i32 noundef 8) #22
  br i1 %3, label %6, label %4

4:                                                ; preds = %2
  %5 = tail call zeroext i1 (ptr, ...) @SDL_SetError_REAL(ptr noundef nonnull @.str.30) #22
  br label %13

6:                                                ; preds = %2
  %7 = getelementptr inbounds nuw i8, ptr %0, i64 8
  %8 = load ptr, ptr %7, align 8
  %9 = getelementptr inbounds nuw i8, ptr %8, i64 24
  %10 = load ptr, ptr %9, align 8
  %11 = load ptr, ptr %0, align 8
  %12 = tail call i32 %10(ptr noundef %11, i32 noundef %1) #22
  br label %13

13:                                               ; preds = %6, %4
  %.0 = phi i32 [ %12, %6 ], [ -1, %4 ]
  ret i32 %.0
}